; Function Attrs: mustprogress uwtable
define dso_local void @_ZN4absl13cord_internal14ReverseConsumeEPNS0_7CordRepENS_11FunctionRefIFvS2_mmEEE(ptr noundef %0, ptr %1, ptr readonly captures(none) %2) local_unnamed_addr #0 personality ptr @__gxx_personality_v0 {
  %4 = load i64, ptr %0, align 8, !tbaa !4
  %5 = getelementptr inbounds nuw i8, ptr %0, i64 12
  %6 = load i8, ptr %5, align 4, !tbaa !13
  %7 = icmp eq i8 %6, 1
  br i1 %7, label %8, label %_ZN4absl13cord_internal7ConsumeEPNS0_7CordRepENS_11FunctionRefIFvS2_mmEEE.exit

8:                                                ; preds = %3
  %9 = getelementptr inbounds nuw i8, ptr %0, i64 16
  %10 = load i64, ptr %9, align 8, !tbaa !14
  %11 = getelementptr inbounds nuw i8, ptr %0, i64 24
  %12 = load ptr, ptr %11, align 8, !tbaa !18
  %13 = getelementptr inbounds nuw i8, ptr %0, i64 8
  %14 = load atomic i32, ptr %13 acquire, align 4
  %15 = icmp eq i32 %14, 2
  br i1 %15, label %16, label %17

16:                                               ; preds = %8
  tail call void @_ZdlPvm(ptr noundef nonnull %0, i64 noundef 32) #4
  br label %_ZN4absl13cord_internal7ConsumeEPNS0_7CordRepENS_11FunctionRefIFvS2_mmEEE.exit

17:                                               ; preds = %8
  %18 = icmp ne ptr %12, null
  tail call void @llvm.assume(i1 %18)
  %19 = getelementptr inbounds nuw i8, ptr %12, i64 8
  %20 = atomicrmw add ptr %19, i32 2 monotonic, align 4
  %21 = atomicrmw sub ptr %13, i32 2 acq_rel, align 4
  %.not.i.i.i = icmp eq i32 %21, 2
  br i1 %.not.i.i.i, label %22, label %_ZN4absl13cord_internal7ConsumeEPNS0_7CordRepENS_11FunctionRefIFvS2_mmEEE.exit, !prof !19

22:                                               ; preds = %17
  tail call void @_ZN4absl13cord_internal7CordRep7DestroyEPS1_(ptr noundef nonnull %0)
  br label %_ZN4absl13cord_internal7ConsumeEPNS0_7CordRepENS_11FunctionRefIFvS2_mmEEE.exit

_ZN4absl13cord_internal7ConsumeEPNS0_7CordRepENS_11FunctionRefIFvS2_mmEEE.exit: ; preds = %3, %16, %17, %22
  %.07.i = phi i64 [ 0, %3 ], [ %10, %16 ], [ %10, %17 ], [ %10, %22 ]
  %.0.i = phi ptr [ %0, %3 ], [ %12, %16 ], [ %12, %17 ], [ %12, %22 ]
  tail call void %2(ptr %1, ptr noundef %.0.i, i64 noundef %.07.i, i64 noundef %4)
  ret void
}